target datalayout = "e-m:e-p270:32:32-p271:32:32-p272:64:64-i64:64-i128:128-f80:128-n8:16:32:64-S128"
target triple = "x86_64-pc-linux-gnu"

%"class.std::__cxx11::basic_string" = type { %"struct.std::__cxx11::basic_string<char>::_Alloc_hider", i64, %union.anon }
%"struct.std::__cxx11::basic_string<char>::_Alloc_hider" = type { ptr }
%union.anon = type { i64, [8 x i8] }
%"class.cv::FileStorage::Impl" = type <{ %"class.cv::FileStorage_API", ptr, %"class.std::__cxx11::basic_string", i32, i8, [3 x i8], ptr, ptr, i8, i8, i8, i8, i32, i32, i8, i8, [2 x i8], ptr, i32, [4 x i8], ptr, i32, i32, i32, [4 x i8], %"class.std::deque", %"class.std::vector", i64, %"class.std::deque.3", %"struct.cv::Ptr", %"struct.cv::Ptr.6", %"class.cv::FileStorage::Impl::Base64Decoder", ptr, %"class.std::vector.15", %"class.std::vector.20", %"class.std::vector.25", %"class.std::vector.30", i64, %"class.std::unordered_map", %"class.std::vector", %"class.std::vector", ptr, i64, i64, i32, [4 x i8] }>
%"class.cv::FileStorage_API" = type { ptr }
%"class.std::deque" = type { %"class.std::_Deque_base" }
%"class.std::_Deque_base" = type { %"struct.std::_Deque_base<cv::FStructData, std::allocator<cv::FStructData>>::_Deque_impl" }
%"struct.std::_Deque_base<cv::FStructData, std::allocator<cv::FStructData>>::_Deque_impl" = type { %"struct.std::_Deque_base<cv::FStructData, std::allocator<cv::FStructData>>::_Deque_impl_data" }
%"struct.std::_Deque_base<cv::FStructData, std::allocator<cv::FStructData>>::_Deque_impl_data" = type { ptr, i64, %"struct.std::_Deque_iterator", %"struct.std::_Deque_iterator" }
%"struct.std::_Deque_iterator" = type { ptr, ptr, ptr, ptr }
%"class.std::deque.3" = type { %"class.std::_Deque_base.4" }
%"class.std::_Deque_base.4" = type { %"struct.std::_Deque_base<char, std::allocator<char>>::_Deque_impl" }
%"struct.std::_Deque_base<char, std::allocator<char>>::_Deque_impl" = type { %"struct.std::_Deque_base<char, std::allocator<char>>::_Deque_impl_data" }
%"struct.std::_Deque_base<char, std::allocator<char>>::_Deque_impl_data" = type { ptr, i64, %"struct.std::_Deque_iterator.5", %"struct.std::_Deque_iterator.5" }
%"struct.std::_Deque_iterator.5" = type { ptr, ptr, ptr, ptr }
%"struct.cv::Ptr" = type { %"class.std::shared_ptr" }
%"class.std::shared_ptr" = type { %"class.std::__shared_ptr" }
%"class.std::__shared_ptr" = type { ptr, %"class.std::__shared_count" }
%"class.std::__shared_count" = type { ptr }
%"struct.cv::Ptr.6" = type { %"class.std::shared_ptr.7" }
%"class.std::shared_ptr.7" = type { %"class.std::__shared_ptr.8" }
%"class.std::__shared_ptr.8" = type { ptr, %"class.std::__shared_count" }
%"class.cv::FileStorage::Impl::Base64Decoder" = type <{ %"struct.cv::Ptr.6", ptr, i32, [4 x i8], %"class.std::vector", %"class.std::vector.10", i64, i64, i8, [7 x i8] }>
%"class.std::vector.10" = type { %"struct.std::_Vector_base.11" }
%"struct.std::_Vector_base.11" = type { %"struct.std::_Vector_base<unsigned char, std::allocator<unsigned char>>::_Vector_impl" }
%"struct.std::_Vector_base<unsigned char, std::allocator<unsigned char>>::_Vector_impl" = type { %"struct.std::_Vector_base<unsigned char, std::allocator<unsigned char>>::_Vector_impl_data" }
%"struct.std::_Vector_base<unsigned char, std::allocator<unsigned char>>::_Vector_impl_data" = type { ptr, ptr, ptr }
%"class.std::vector.15" = type { %"struct.std::_Vector_base.16" }
%"struct.std::_Vector_base.16" = type { %"struct.std::_Vector_base<cv::FileNode, std::allocator<cv::FileNode>>::_Vector_impl" }
%"struct.std::_Vector_base<cv::FileNode, std::allocator<cv::FileNode>>::_Vector_impl" = type { %"struct.std::_Vector_base<cv::FileNode, std::allocator<cv::FileNode>>::_Vector_impl_data" }
%"struct.std::_Vector_base<cv::FileNode, std::allocator<cv::FileNode>>::_Vector_impl_data" = type { ptr, ptr, ptr }
%"class.std::vector.20" = type { %"struct.std::_Vector_base.21" }
%"struct.std::_Vector_base.21" = type { %"struct.std::_Vector_base<cv::Ptr<std::vector<unsigned char>>, std::allocator<cv::Ptr<std::vector<unsigned char>>>>::_Vector_impl" }
%"struct.std::_Vector_base<cv::Ptr<std::vector<unsigned char>>, std::allocator<cv::Ptr<std::vector<unsigned char>>>>::_Vector_impl" = type { %"struct.std::_Vector_base<cv::Ptr<std::vector<unsigned char>>, std::allocator<cv::Ptr<std::vector<unsigned char>>>>::_Vector_impl_data" }
%"struct.std::_Vector_base<cv::Ptr<std::vector<unsigned char>>, std::allocator<cv::Ptr<std::vector<unsigned char>>>>::_Vector_impl_data" = type { ptr, ptr, ptr }
%"class.std::vector.25" = type { %"struct.std::_Vector_base.26" }
%"struct.std::_Vector_base.26" = type { %"struct.std::_Vector_base<unsigned char *, std::allocator<unsigned char *>>::_Vector_impl" }
%"struct.std::_Vector_base<unsigned char *, std::allocator<unsigned char *>>::_Vector_impl" = type { %"struct.std::_Vector_base<unsigned char *, std::allocator<unsigned char *>>::_Vector_impl_data" }
%"struct.std::_Vector_base<unsigned char *, std::allocator<unsigned char *>>::_Vector_impl_data" = type { ptr, ptr, ptr }
%"class.std::vector.30" = type { %"struct.std::_Vector_base.31" }
%"struct.std::_Vector_base.31" = type { %"struct.std::_Vector_base<unsigned long, std::allocator<unsigned long>>::_Vector_impl" }
%"struct.std::_Vector_base<unsigned long, std::allocator<unsigned long>>::_Vector_impl" = type { %"struct.std::_Vector_base<unsigned long, std::allocator<unsigned long>>::_Vector_impl_data" }
%"struct.std::_Vector_base<unsigned long, std::allocator<unsigned long>>::_Vector_impl_data" = type { ptr, ptr, ptr }
%"class.std::unordered_map" = type { %"class.std::_Hashtable" }
%"class.std::_Hashtable" = type { ptr, i64, %"struct.std::__detail::_Hash_node_base", i64, %"struct.std::__detail::_Prime_rehash_policy", ptr }
%"struct.std::__detail::_Hash_node_base" = type { ptr }
%"struct.std::__detail::_Prime_rehash_policy" = type { float, i64 }
%"class.std::vector" = type { %"struct.std::_Vector_base" }
%"struct.std::_Vector_base" = type { %"struct.std::_Vector_base<char, std::allocator<char>>::_Vector_impl" }
%"struct.std::_Vector_base<char, std::allocator<char>>::_Vector_impl" = type { %"struct.std::_Vector_base<char, std::allocator<char>>::_Vector_impl_data" }
%"struct.std::_Vector_base<char, std::allocator<char>>::_Vector_impl_data" = type { ptr, ptr, ptr }

; Function Attrs: mustprogress uwtable
define noundef ptr @_ZN2cv11FileStorage4Impl4getsEv(ptr noundef nonnull align 8 dereferenceable(700) %0) unnamed_addr #4 align 2 {
  %2 = alloca ptr, align 8
  %3 = alloca ptr, align 8
  %4 = alloca ptr, align 8
  %5 = alloca i32, align 4
  %6 = alloca i64, align 8
  store ptr %0, ptr %3, align 8, !tbaa !38
  %7 = load ptr, ptr %3, align 8
  call void @llvm.lifetime.start.p0(i64 8, ptr %4) #3
  %8 = call noundef ptr @_ZN2cv11FileStorage4Impl4getsEm(ptr noundef nonnull align 8 dereferenceable(700) %7, i64 noundef 0)
  store ptr %8, ptr %4, align 8, !tbaa !3
  %9 = load ptr, ptr %4, align 8, !tbaa !3
  %10 = icmp ne ptr %9, null
  br i1 %10, label %20, label %11

11:                                               ; preds = %1
  %12 = load ptr, ptr %7, align 8, !tbaa !150
  %13 = getelementptr inbounds ptr, ptr %12, i64 11
  %14 = load ptr, ptr %13, align 8
  %15 = call noundef ptr %14(ptr noundef nonnull align 8 dereferenceable(700) %7)
  store ptr %15, ptr %4, align 8, !tbaa !3
  %16 = load ptr, ptr %4, align 8, !tbaa !3
  store i8 0, ptr %16, align 1, !tbaa !10
  %17 = load ptr, ptr %7, align 8, !tbaa !150
  %18 = getelementptr inbounds ptr, ptr %17, i64 6
  %19 = load ptr, ptr %18, align 8
  call void %19(ptr noundef nonnull align 8 dereferenceable(700) %7)
  store ptr null, ptr %2, align 8
  store i32 1, ptr %5, align 4
  br label %60

20:                                               ; preds = %1
  call void @llvm.lifetime.start.p0(i64 8, ptr %6) #3
  %21 = load ptr, ptr %4, align 8, !tbaa !3
  %22 = call i64 @strlen(ptr noundef %21) #24
  store i64 %22, ptr %6, align 8, !tbaa !8
  %23 = load i64, ptr %6, align 8, !tbaa !8
  %24 = icmp ugt i64 %23, 0
  br i1 %24, label %25, label %54

25:                                               ; preds = %20
  %26 = load ptr, ptr %4, align 8, !tbaa !3
  %27 = load i64, ptr %6, align 8, !tbaa !8
  %28 = sub i64 %27, 1
  %29 = getelementptr inbounds nuw i8, ptr %26, i64 %28
  %30 = load i8, ptr %29, align 1, !tbaa !10
  %31 = sext i8 %30 to i32
  %32 = icmp ne i32 %31, 10
  br i1 %32, label %33, label %54

33:                                               ; preds = %25
  %34 = load ptr, ptr %4, align 8, !tbaa !3
  %35 = load i64, ptr %6, align 8, !tbaa !8
  %36 = sub i64 %35, 1
  %37 = getelementptr inbounds nuw i8, ptr %34, i64 %36
  %38 = load i8, ptr %37, align 1, !tbaa !10
  %39 = sext i8 %38 to i32
  %40 = icmp ne i32 %39, 13
  br i1 %40, label %41, label %54

41:                                               ; preds = %33
  %42 = load ptr, ptr %7, align 8, !tbaa !150
  %43 = getelementptr inbounds ptr, ptr %42, i64 5
  %44 = load ptr, ptr %43, align 8
  %45 = call noundef zeroext i1 %44(ptr noundef nonnull align 8 dereferenceable(700) %7)
  br i1 %45, label %54, label %46

46:                                               ; preds = %41
  %47 = load ptr, ptr %4, align 8, !tbaa !3
  %48 = load i64, ptr %6, align 8, !tbaa !8
  %49 = getelementptr inbounds nuw i8, ptr %47, i64 %48
  store i8 10, ptr %49, align 1, !tbaa !10
  %50 = load ptr, ptr %4, align 8, !tbaa !3
  %51 = load i64, ptr %6, align 8, !tbaa !8
  %52 = add i64 %51, 1
  %53 = getelementptr inbounds nuw i8, ptr %50, i64 %52
  store i8 0, ptr %53, align 1, !tbaa !10
  br label %54

54:                                               ; preds = %46, %41, %33, %25, %20
  call void @llvm.lifetime.end.p0(i64 8, ptr %6) #3
  br label %55

55:                                               ; preds = %54
  %56 = getelementptr inbounds nuw %"class.cv::FileStorage::Impl", ptr %7, i32 0, i32 44
  %57 = load i32, ptr %56, align 8, !tbaa !131
  %58 = add nsw i32 %57, 1
  store i32 %58, ptr %56, align 8, !tbaa !131
  %59 = load ptr, ptr %4, align 8, !tbaa !3
  store ptr %59, ptr %2, align 8
  store i32 1, ptr %5, align 4
  br label %60

60:                                               ; preds = %55, %11
  call void @llvm.lifetime.end.p0(i64 8, ptr %4) #3
  %61 = load ptr, ptr %2, align 8
  ret ptr %61
}