; Function Attrs: mustprogress uwtable
define noundef ptr @_ZN2cv11FileStorage4Impl4getsEv(ptr noundef nonnull align 8 dereferenceable(700) %0) unnamed_addr #13 align 2 {
  %2 = tail call noundef ptr @_ZN2cv11FileStorage4Impl4getsEm(ptr noundef nonnull align 8 dereferenceable(700) %0, i64 noundef 0)
  %.not = icmp eq ptr %2, null
  br i1 %.not, label %3, label %11

3:                                                ; preds = %1
  %4 = load ptr, ptr %0, align 8, !tbaa !114
  %5 = getelementptr inbounds nuw i8, ptr %4, i64 88
  %6 = load ptr, ptr %5, align 8
  %7 = tail call noundef ptr %6(ptr noundef nonnull align 8 dereferenceable(700) %0)
  store i8 0, ptr %7, align 1, !tbaa !5
  %8 = load ptr, ptr %0, align 8, !tbaa !114
  %9 = getelementptr inbounds nuw i8, ptr %8, i64 48
  %10 = load ptr, ptr %9, align 8
  tail call void %10(ptr noundef nonnull align 8 dereferenceable(700) %0)
  br label %28

11:                                               ; preds = %1
  %12 = tail call i64 @strlen(ptr noundef nonnull dereferenceable(1) %2) #40
  %.not17 = icmp eq i64 %12, 0
  br i1 %.not17, label %24, label %13

13:                                               ; preds = %11
  %14 = getelementptr i8, ptr %2, i64 %12
  %15 = getelementptr i8, ptr %14, i64 -1
  %16 = load i8, ptr %15, align 1, !tbaa !5
  switch i8 %16, label %17 [
    i8 10, label %24
    i8 13, label %24
  ]

17:                                               ; preds = %13
  %18 = load ptr, ptr %0, align 8, !tbaa !114
  %19 = getelementptr inbounds nuw i8, ptr %18, i64 40
  %20 = load ptr, ptr %19, align 8
  %21 = tail call noundef zeroext i1 %20(ptr noundef nonnull align 8 dereferenceable(700) %0)
  br i1 %21, label %24, label %22

22:                                               ; preds = %17
  store i8 10, ptr %14, align 1, !tbaa !5
  %23 = getelementptr i8, ptr %14, i64 1
  store i8 0, ptr %23, align 1, !tbaa !5
  br label %24

24:                                               ; preds = %13, %13, %22, %17, %11
  %25 = getelementptr inbounds nuw i8, ptr %0, i64 696
  %26 = load i32, ptr %25, align 8, !tbaa !128
  %27 = add nsw i32 %26, 1
  store i32 %27, ptr %25, align 8, !tbaa !128
  br label %28

28:                                               ; preds = %24, %3
  ret ptr %2
}